Certificate:
    Data:
        Version: 3 (0x2)
        Serial Number: 1 (0x1)
        Signature Algorithm: sha256WithRSAEncryption
        Issuer: CN=grr.li
        Validity
            Not Before: Sep 16 10:17:05 2020 GMT
            Not After : Sep 14 10:17:05 2030 GMT
        Subject: CN=tiamat
        Subject Public Key Info:
            Public Key Algorithm: rsaEncryption
                RSA Public-Key: (2048 bit)
                Modulus:
                    00:a5:b6:86:ad:19:c6:3c:6e:88:af:b0:26:f7:7c:
                    62:b0:13:fd:96:4a:a1:98:e0:13:f1:5a:8f:39:d3:
                    8f:0a:22:4b:75:ca:05:df:30:2b:d9:af:f4:b9:d3:
                    c7:bd:8d:b0:20:b7:34:c8:5c:4d:a3:f4:d4:e7:c6:
                    c0:9c:c1:85:4b:6a:cf:b2:fd:67:7f:4a:d4:c8:5f:
                    6c:24:e3:1a:2a:c2:02:19:7b:72:16:7d:c4:13:56:
                    a4:ce:e2:3e:db:14:73:f2:fe:3f:99:cd:87:b0:2d:
                    ce:24:46:b3:59:40:14:e5:0b:88:ed:57:ba:bc:39:
                    50:67:e9:ed:6b:cf:7e:23:4e:ac:83:a5:48:b4:19:
                    93:5d:b7:ae:61:5f:77:f0:7d:6b:28:01:d2:a1:5a:
                    64:6c:93:3d:53:a4:d8:c2:8b:64:fc:7a:27:af:f0:
                    79:22:16:98:c0:6c:c9:4a:47:09:58:5c:d6:d6:95:
                    6a:35:12:e7:b5:40:3d:7a:b6:aa:a5:bf:b5:de:a2:
                    4e:9c:29:93:c5:c4:10:cf:51:ff:57:d6:c5:6a:85:
                    46:96:d3:a7:dd:ee:37:68:d2:22:d9:73:c9:89:5b:
                    4d:a2:d3:4e:9a:76:32:50:66:68:ff:44:06:37:2e:
                    c4:46:b2:c9:2a:02:4c:8b:61:a9:c2:70:a2:f2:83:
                    c8:bf
                Exponent: 65537 (0x10001)
        X509v3 extensions:
            X509v3 Basic Constraints: 
                CA:FALSE
            X509v3 Subject Key Identifier: 
                FD:82:8B:1B:94:F7:36:E8:59:AC:E3:BC:BD:5C:61:0E:14:82:DF:3F
            X509v3 Authority Key Identifier: 
                keyid:CD:3F:39:2A:8C:C7:BE:96:C5:7A:C4:27:4D:E2:30:D2:7D:08:97:01
                DirName:/CN=grr.li
                serial:6A:3E:FA:85:4C:D3:41:30:67:D3:E0:F1:F2:37:63:8B:41:B0:7F:64

            X509v3 Extended Key Usage: 
                TLS Web Server Authentication
            X509v3 Key Usage: 
                Digital Signature, Key Encipherment
    Signature Algorithm: sha256WithRSAEncryption
         0c:9d:48:74:bb:6d:74:71:c4:f1:4d:eb:fb:4e:c7:a4:2c:73:
         1c:5e:0a:19:2c:00:23:c7:15:77:b4:95:6e:31:61:fd:ff:4a:
         7d:c2:2f:20:51:52:03:87:b7:4c:cd:30:77:f0:5e:5c:3c:8c:
         ad:1e:75:52:b1:ac:19:56:d4:93:42:51:a3:b5:78:99:3b:57:
         e5:88:19:78:52:5b:54:44:a6:40:ae:f3:b1:cb:a3:85:70:a6:
         53:19:f0:0e:ae:46:98:7e:86:6c:80:d4:51:53:c4:fd:e0:32:
         94:e7:80:11:94:b0:ea:a9:fa:b4:b6:54:dc:b3:55:7b:13:a7:
         57:f4:c6:b2:5e:74:eb:50:3a:06:d3:30:b5:55:b6:d4:44:77:
         38:1c:02:ce:c0:4b:47:db:55:97:fc:72:ab:c0:66:77:d8:b8:
         5e:5e:31:46:b5:ba:1e:3e:37:79:e5:53:9c:3e:eb:5a:e2:24:
         2c:1c:28:5d:1f:f4:d5:91:e2:e7:2b:e9:17:41:8c:a9:6f:95:
         4c:12:0e:ed:f3:12:3d:77:52:76:94:3e:ba:fc:68:e6:6a:ff:
         7b:be:46:5e:08:a9:0d:fd:25:53:33:01:cb:fe:39:1d:0a:66:
         fe:f2:e3:21:60:2b:22:4f:b9:1b:d2:05:58:8c:40:de:16:88:
         b1:31:b3:ba
-----BEGIN CERTIFICATE-----
MIIDOzCCAiOgAwIBAgIBATANBgkqhkiG9w0BAQsFADARMQ8wDQYDVQQDDAZncnIu
bGkwHhcNMjAwOTE2MTAxNzA1WhcNMzAwOTE0MTAxNzA1WjARMQ8wDQYDVQQDDAZ0
aWFtYXQwggEiMA0GCSqGSIb3DQEBAQUAA4IBDwAwggEKAoIBAQCltoatGcY8boiv
sCb3fGKwE/2WSqGY4BPxWo85048KIkt1ygXfMCvZr/S508e9jbAgtzTIXE2j9NTn
xsCcwYVLas+y/Wd/StTIX2wk4xoqwgIZe3IWfcQTVqTO4j7bFHPy/j+ZzYewLc4k
RrNZQBTlC4jtV7q8OVBn6e1rz34jTqyDpUi0GZNdt65hX3fwfWsoAdKhWmRskz1T
pNjCi2T8eiev8HkiFpjAbMlKRwlYXNbWlWo1Eue1QD16tqqlv7Xeok6cKZPFxBDP
Uf9X1sVqhUaW06fd7jdo0iLZc8mJW02i006adjJQZmj/RAY3LsRGsskqAkyLYanC
cKLyg8i/AgMBAAGjgZ0wgZowCQYDVR0TBAIwADAdBgNVHQ4EFgQU/YKLG5T3NuhZ
rOO8vVxhDhSC3z8wTAYDVR0jBEUwQ4AUzT85KozHvpbFesQnTeIw0n0IlwGhFaQT
MBExDzANBgNVBAMMBmdyci5saYIUaj76hUzTQTBn0+Dx8jdji0Gwf2QwEwYDVR0l
BAwwCgYIKwYBBQUHAwEwCwYDVR0PBAQDAgWgMA0GCSqGSIb3DQEBCwUAA4IBAQAM
nUh0u210ccTxTev7TsekLHMcXgoZLAAjxxV3tJVuMWH9/0p9wi8gUVIDh7dMzTB3
8F5cPIytHnVSsawZVtSTQlGjtXiZO1fliBl4UltURKZArvOxy6OFcKZTGfAOrkaY
foZsgNRRU8T94DKU54ARlLDqqfq0tlTcs1V7E6dX9MayXnTrUDoG0zC1VbbURHc4
HALOwEtH21WX/HKrwGZ32LheXjFGtboePjd55VOcPuta4iQsHChdH/TVkeLnK+kX
QYypb5VMEg7t8xI9d1J2lD66/Gjmav97vkZeCKkN/SVTMwHL/jkdCmb+8uMhYCsi
T7kb0gVYjEDeFoixMbO6
-----END CERTIFICATE-----
